# -*- mode: cmake; tab-width: 4; indent-tabs-mode: nil -*-
#
# Copyright (C) 2012-2015 Marco Craveiro <marco.craveiro@gmail.com>
#
# This program is free software; you can redistribute it and/or modify
# it under the terms of the GNU General Public License as published by
# the Free Software Foundation; either version 3 of the License, or
# (at your option) any later version.
#
# This program is distributed in the hope that it will be useful,
# but WITHOUT ANY WARRANTY; without even the implied warranty of
# MERCHANTABILITY or FITNESS FOR A PARTICULAR PURPOSE. See the
# GNU General Public License for more details.
#
# You should have received a copy of the GNU General Public License
# along with this program; if not, write to the Free Software
# Foundation, Inc., 51 Franklin Street, Fifth Floor, Boston,
# MA 02110-1301, USA.
#
{
    boost log 1
    Memcheck:Leak
    match-leak-kinds: reachable
    fun:_Znwm
    ...
    fun:_ZN5boost3log12v2s_mt_posix7sources21basic_severity_loggerINS2_20basic_channel_loggerINS2_12basic_loggerIcNS2_23severity_channel_loggerIN5dogen7utility3log14severity_levelENSt7__cxx1112basic_stringIcSt11char_traitsIcESaIcEEEEENS2_19single_thread_modelEEESG_EESA_E20open_record_unlockedINS_9parameter3aux15tagged_argumentINS1_8keywords3tag8severityEKSA_EEEENS1_6recordERKT_
    fun:_ZN5boost3log12v2s_mt_posix7sources22basic_composite_loggerIcNS2_23severity_channel_loggerIN5dogen7utility3log14severity_levelENSt7__cxx1112basic_stringIcSt11char_traitsIcESaIcEEEEENS2_19single_thread_modelENS2_8featuresIJNS2_8severityIS8_EENS2_7channelISE_EEEEEE11open_recordINS_9parameter3aux15tagged_argumentINS1_8keywords3tag8severityEKS8_EEEENS1_6recordERKT_
    ...
}

{
   JSON
   Memcheck:Leak
   match-leak-kinds: reachable
   fun:_Znwm
   fun:_ZN4Json5Value13nullSingletonEv
   obj:/usr/lib/x86_64-linux-gnu/libjsoncpp.so.1.7.4
   fun:call_init.part.0
   fun:call_init
   fun:_dl_init
   obj:/lib/x86_64-linux-gnu/ld-2.28.so
   ...
}

{
    getpwuid_r
    Memcheck:Leak
    fun:malloc
    ...
    fun:getpwuid_r@@GLIBC_2.1.2
    ...
}

{
   get_once_per_thread_epoch
   Memcheck:Leak
   fun:malloc
   fun:_ZN5boost6detail25get_once_per_thread_epochEv
   ...
}

{
   libxml2_xzread
   Memcheck:Leak
   ...
   fun:lzma_auto_decoder
   ...
   fun:__libxml2_xzread
   ...
   fun:xmlParserInputBufferGrow
   fun:xmlNewTextReader
   fun:xmlNewTextReaderFilename
   ...
}

{
   clang 32-bit 7 R_gzopen suppression
   Memcheck:Cond
   fun:inflateReset2
   fun:inflateInit2_
   fun:*
}


{
   make_external_thread_data
   Memcheck:Leak
   ...
   fun:_ZN5boost12_GLOBAL__N_125make_external_thread_dataEv
   ...
}

{
   postgres_ssl
   Memcheck:Leak
   ...
   fun:PQconnectPoll
   ...
}

{
   Boost Log 1
   Memcheck:Leak
   ...
   fun:_ZN5boost3log12v2s_mt_posix7sources3aux14severity_levelIN5dogen7utility3log14severity_levelEE9set_valueES8_
   fun:_ZN5boost3log12v2s_mt_posix7sources21basic_severity_loggerINS2_20basic_channel_loggerINS2_12basic_loggerIcNS2_23severity_channel_loggerIN5dogen7utility3log14severity_levelENSt7__cxx1112basic_stringIcSt11char_traitsIcESaIcEEEEENS2_19single_thread_modelEEESG_EESA_E20open_record_unlockedINS_9parameter3aux25tagged_argument_list_of_1INSO_15tagged_argumentINS1_8keywords3tag8severityEKSA_EEEEEENS1_6recordERKT_
   ...
}

{
   Boost Log 2
   Memcheck:Leak
   ...
   fun:_ZN5boost3log11v2_mt_posix7sources3aux18get_severity_levelEv
   fun:_ZN5boost3log11v2_mt_posix7sources21basic_severity_loggerINS2_20basic_channel_loggerINS2_12basic_loggerIcNS2_23severity_channel_loggerIN5dogen7utility3log14severity_levelESsEENS2_19single_thread_modelEEESsEESA_E20open_record_unlockedINS_9parameter3aux15tagged_argumentINS1_8keywords3tag8severityEKSA_EEEENS1_6recordERKT_
   ...
}

{
   Boost Log 3
   Memcheck:Leak
   ...
   fun:_ZN5boost3log11v2_mt_posix7sources21basic_severity_loggerINS2_20basic_channel_loggerINS2_12basic_loggerIcNS2_23severity_channel_loggerIN5dogen7utility3log14severity_levelESsEENS2_19single_thread_modelEEESsEESA_E20open_record_unlockedINS_9parameter3aux15tagged_argumentINS1_8keywords3tag8severityEKSA_EEEENS1_6recordERKT_
   fun:_ZN5boost3log11v2_mt_posix7sources22basic_composite_loggerIcNS2_23severity_channel_loggerIN5dogen7utility3log14severity_levelESsEENS2_19single_thread_modelENS2_8featuresIINS2_8severityIS8_EENS2_7channelISsEEEEEE11open_recordINS_9parameter3aux15tagged_argumentINS1_8keywords3tag8severityEKS8_EEEENS1_6recordERKT_
   ...
}

{
   Boost thread
   Memcheck:Leak
   fun:_Znwm
   fun:_ZN5boost6detail12shared_countC1INS0_16thread_data_baseEEEPT_
   fun:_ZN5boost6detail20sp_pointer_constructINS0_16thread_data_baseES2_EEvPNS_10shared_ptrIT_EEPT0_RNS0_12shared_countE
}

{
   odb 1
   Memcheck:Leak
   ...
   fun:PQconnectPoll
   ...
   fun:PQconnectdb
   ...
}

{
   odb 2
   Memcheck:Leak
   ...
   fun:PQgetResult
   ...
}

{
   odb 3
   Memcheck:Cond
   ...
   fun:PQconnectPoll
   ...
   fun:PQconnectdb
   ...
}

{
   odb 4
   Memcheck:Value8
   ...
   fun:PQconnectPoll
   ...
   fun:PQconnectdb
   ...
}

{
   odb 5
   Memcheck:Value8
   ...
   fun:PQgetResult
   ...
}

{
   odb 6
   Memcheck:Cond
   ...
   fun:PQgetResult
   ...
}

{
   odb 7
   Memcheck:Cond
   ...
   fun:PQgetResult
   ...
}

{
   odb 8
   Memcheck:Value8
   ...
   fun:PQgetResult
   ...
}

{
   odb 9
   Memcheck:Cond
   fun:strcmp
   fun:PQparameterStatus
   ...
}

{
   boost directory iterator 1
   Memcheck:Cond
   fun:_ZN12_GLOBAL__N_117dir_itr_incrementERPvS1_RNSt7__cxx1112basic_stringIcSt11char_traitsIcESaIcEEERN5boost10filesystem11file_statusESC_
   fun:_ZN5boost10filesystem6detail28directory_iterator_incrementERNS0_18directory_iteratorEPNS_6system10error_codeE
   fun:_ZN5boost10filesystem6detail28directory_iterator_constructERNS0_18directory_iteratorERKNS0_4pathEPNS_6system10error_codeE
   fun:_ZN5boost10filesystem18directory_iteratorC2ERKNS0_4pathE
   fun:_ZN5boost10filesystem28recursive_directory_iteratorC2ERKNS0_4pathE
   fun:_ZN4masd5dogen7utility10filesystem10find_filesERKN5boost10filesystem4pathE
   fun:_ZN4masd5dogen7utility10filesystem10find_filesERKSt6vectorIN5boost10filesystem4pathESaIS6_EE
   ...
}

{
   boost directory iterator 2
   Memcheck:Cond
   fun:_ZN12_GLOBAL__N_117dir_itr_incrementERPvS1_RNSt7__cxx1112basic_stringIcSt11char_traitsIcESaIcEEERN5boost10filesystem11file_statusESC_
   fun:_ZN5boost10filesystem6detail28directory_iterator_incrementERNS0_18directory_iteratorEPNS_6system10error_codeE
   fun:_ZN5boost10filesystem18directory_iterator9incrementEv
   fun:_ZN5boost9iterators20iterator_core_access9incrementINS_10filesystem18directory_iteratorEEEvRT_
   fun:_ZN5boost9iterators6detail20iterator_facade_baseINS_10filesystem18directory_iteratorENS3_15directory_entryENS0_25single_pass_traversal_tagERS5_lLb0ELb0EEppEv
   fun:_ZN5boost10filesystem6detail17recur_dir_itr_imp9incrementEPNS_6system10error_codeE
   fun:_ZN5boost10filesystem28recursive_directory_iterator9incrementEv
   fun:_ZN5boost9iterators20iterator_core_access9incrementINS_10filesystem28recursive_directory_iteratorEEEvRT_
   fun:_ZN5boost9iterators6detail20iterator_facade_baseINS_10filesystem28recursive_directory_iteratorENS3_15directory_entryENS0_25single_pass_traversal_tagERS5_lLb0ELb0EEppEv
   fun:_ZN4masd5dogen7utility10filesystem10find_filesERKN5boost10filesystem4pathE
   fun:_ZN4masd5dogen7utility10filesystem10find_filesERKSt6vectorIN5boost10filesystem4pathESaIS6_EE
   ...
}

{
   CMake
   Memcheck:Leak
   match-leak-kinds: reachable
   fun:malloc
   obj:/home/marco/local/cmake-3.15.3-Linux-x86_64/bin/cmake
   obj:/home/marco/local/cmake-3.15.3-Linux-x86_64/bin/cmake
   obj:/home/marco/local/cmake-3.15.3-Linux-x86_64/bin/cmake
}

{
   Boost Log 4
   Memcheck:Leak
   match-leak-kinds: reachable
   fun:_Znwm
   fun:_ZN5boost3log12v2s_mt_posix7sources3aux18get_severity_levelEv
   fun:_ZN5boost3log12v2s_mt_posix7sources3aux14severity_levelIN5dogen7utility3log14severity_levelEE9set_valueES8_
   fun:_ZN5boost3log12v2s_mt_posix7sources21basic_severity_loggerINS2_20basic_channel_loggerINS2_12basic_loggerIcNS2_23severity_channel_loggerIN5dogen7utility3log14severity_levelENSt7__cxx1112basic_stringIcSt11char_traitsIcESaIcEEEEENS2_19single_thread_modelEEESG_EESA_E20open_record_unlockedINS_9parameter3aux15tagged_argumentINS1_8keywords3tag8severityEKSA_EEEENS1_6recordERKT_
   fun:_ZN5boost3log12v2s_mt_posix7sources22basic_composite_loggerIcNS2_23severity_channel_loggerIN5dogen7utility3log14severity_levelENSt7__cxx1112basic_stringIcSt11char_traitsIcESaIcEEEEENS2_19single_thread_modelENS2_8featuresIJNS2_8severityIS8_EENS2_7channelISE_EEEEEE11open_recordINS_9parameter3aux15tagged_argumentINS1_8keywords3tag8severityEKS8_EEEENS1_6recordERKT_
   ...
}

{
   Boost Log 5
   Memcheck:Leak
   match-leak-kinds: reachable
   fun:_Znwm
   fun:_ZN5boost3log12v2s_mt_posix3aux11this_thread6get_idEv
   fun:_ZN5boost3log12v2s_mt_posix4core14implementation11thread_data15get_random_seedEv
   fun:_ZN5boost3log12v2s_mt_posix4core14implementation11thread_dataC1Ev
   fun:_ZN5boost3log12v2s_mt_posix4core14implementation16init_thread_dataEv
   fun:_ZN5boost3log12v2s_mt_posix4core14implementation15get_thread_dataEv
   fun:open_record
   fun:_ZN5boost3log12v2s_mt_posix4core11open_recordERKNS1_13attribute_setE
   ...
}

{
   Boost Log 6
   Memcheck:Leak
   match-leak-kinds: reachable
   fun:_Znwm
   fun:_ZN5boost6detail8heap_newINS0_25thread_exit_callback_nodeERPNS0_25thread_exit_function_baseERPS2_EEPT_OT0_OT1_
   fun:_ZN5boost6detail24add_thread_exit_functionEPNS0_25thread_exit_function_baseE
   fun:_ZN5boost11this_thread14at_thread_exitINS_3_bi6bind_tINS2_11unspecifiedENS_15checked_deleterImEENS2_5list1INS2_5valueIPmEEEEEEEEvT_
   fun:_ZN5boost3log12v2s_mt_posix7sources3aux18get_severity_levelEv
   ...
}

{
   Boost Log 7
   Memcheck:Leak
   match-leak-kinds: reachable
   fun:_Znwm
   fun:_ZN5boost6detail8heap_newINS0_20thread_exit_functionINS_3_bi6bind_tINS3_11unspecifiedENS_15checked_deleterImEENS3_5list1INS3_5valueIPmEEEEEEEERSD_EEPT_OT0_
   fun:_ZN5boost11this_thread14at_thread_exitINS_3_bi6bind_tINS2_11unspecifiedENS_15checked_deleterImEENS2_5list1INS2_5valueIPmEEEEEEEEvT_
   fun:_ZN5boost3log12v2s_mt_posix7sources3aux18get_severity_levelEv
   fun:_ZN5boost3log12v2s_mt_posix7sources3aux14severity_levelIN5dogen7utility3log14severity_levelEE9set_valueES8_
   ...
}

{
   Boost Log 8
   Memcheck:Leak
   match-leak-kinds: reachable
   fun:_Znwm
   fun:_ZN5boost6detail12shared_countC1INS0_16thread_data_baseEEEPT_
   fun:_ZN5boost6detail20sp_pointer_constructINS0_16thread_data_baseES2_EEvPNS_10shared_ptrIT_EEPT0_RNS0_12shared_countE
   fun:_ZN5boost10shared_ptrINS_6detail16thread_data_baseEEC1IS2_EEPT_
   fun:_ZN5boost10shared_ptrINS_6detail16thread_data_baseEE5resetIS2_EEvPT_
   fun:_ZN5boost6detail25make_external_thread_dataEv
   fun:_ZN5boost6detail31get_or_make_current_thread_dataEv
   fun:_ZN5boost6detail24add_thread_exit_functionEPNS0_25thread_exit_function_baseE
   fun:_ZN5boost11this_thread14at_thread_exitINS_3_bi6bind_tINS2_11unspecifiedENS_15checked_deleterImEENS2_5list1INS2_5valueIPmEEEEEEEEvT_
   fun:_ZN5boost3log12v2s_mt_posix7sources3aux18get_severity_levelEv
   fun:_ZN5boost3log12v2s_mt_posix7sources3aux14severity_levelIN5dogen7utility3log14severity_levelEE9set_valueES8_
   fun:_ZN5boost3log12v2s_mt_posix7sources21basic_severity_loggerINS2_20basic_channel_loggerINS2_12basic_loggerIcNS2_23severity_channel_loggerIN5dogen7utility3log14severity_levelENSt7__cxx1112basic_stringIcSt11char_traitsIcESaIcEEEEENS2_19single_thread_modelEEESG_EESA_E20open_record_unlockedINS_9parameter3aux15tagged_argumentINS1_8keywords3tag8severityEKSA_EEEENS1_6recordERKT_
   fun:_ZN5boost3log12v2s_mt_posix7sources22basic_composite_loggerIcNS2_23severity_channel_loggerIN5dogen7utility3log14severity_levelENSt7__cxx1112basic_stringIcSt11char_traitsIcESaIcEEEEENS2_19single_thread_modelENS2_8featuresIJNS2_8severityIS8_EENS2_7channelISE_EEEEEE11open_recordINS_9parameter3aux15tagged_argumentINS1_8keywords3tag8severityEKS8_EEEENS1_6recordERKT_
   ...
}

{
   Boost Log 9
   Memcheck:Leak
   match-leak-kinds: reachable
   fun:_Znwm
   fun:_ZN5boost6detail8heap_newINS0_26externally_launched_threadEEEPT_v
   fun:_ZN5boost6detail25make_external_thread_dataEv
   fun:_ZN5boost6detail31get_or_make_current_thread_dataEv
   fun:_ZN5boost6detail24add_thread_exit_functionEPNS0_25thread_exit_function_baseE
   fun:_ZN5boost11this_thread14at_thread_exitINS_3_bi6bind_tINS2_11unspecifiedENS_15checked_deleterImEENS2_5list1INS2_5valueIPmEEEEEEEEvT_
   ...
}
